; Function Attrs: nounwind uwtable
define ptr @l_Lean_Meta_substCore___lambda__21___boxed(ptr noundef %0, ptr noundef %1, ptr noundef %2, ptr noundef %3, ptr noundef %4, ptr noundef %5, ptr noundef %6, ptr noundef %7, ptr noundef %8, ptr noundef %9, ptr noundef %10) #0 {
  %12 = ptrtoint ptr %3 to i64
  %13 = and i64 %12, 1
  %.not = icmp eq i64 %13, 0
  br i1 %.not, label %14, label %lean_dec.exit18

14:                                               ; preds = %11
  %15 = load i32, ptr %3, align 4, !tbaa !5
  %16 = icmp sgt i32 %15, 1
  br i1 %16, label %17, label %19, !prof !10

17:                                               ; preds = %14
  %18 = add nsw i32 %15, -1
  store i32 %18, ptr %3, align 4, !tbaa !5
  br label %lean_dec.exit18

19:                                               ; preds = %14
  %.not.i = icmp eq i32 %15, 0
  br i1 %.not.i, label %lean_dec.exit18, label %20

20:                                               ; preds = %19
  tail call void @lean_dec_ref_cold(ptr noundef nonnull %3) #4
  br label %lean_dec.exit18

lean_dec.exit18:                                  ; preds = %20, %19, %17, %11
  %21 = ptrtoint ptr %4 to i64
  %22 = and i64 %21, 1
  %.not23 = icmp eq i64 %22, 0
  br i1 %.not23, label %23, label %lean_dec.exit17

23:                                               ; preds = %lean_dec.exit18
  %24 = load i32, ptr %4, align 4, !tbaa !5
  %25 = icmp sgt i32 %24, 1
  br i1 %25, label %26, label %28, !prof !10

26:                                               ; preds = %23
  %27 = add nsw i32 %24, -1
  store i32 %27, ptr %4, align 4, !tbaa !5
  br label %lean_dec.exit17

28:                                               ; preds = %23
  %.not.i19 = icmp eq i32 %24, 0
  br i1 %.not.i19, label %lean_dec.exit17, label %29

29:                                               ; preds = %28
  tail call void @lean_dec_ref_cold(ptr noundef nonnull %4) #4
  br label %lean_dec.exit17

lean_dec.exit17:                                  ; preds = %29, %28, %26, %lean_dec.exit18
  %30 = ptrtoint ptr %5 to i64
  %31 = and i64 %30, 1
  %.not24 = icmp eq i64 %31, 0
  br i1 %.not24, label %32, label %lean_dec.exit

32:                                               ; preds = %lean_dec.exit17
  %33 = load i32, ptr %5, align 4, !tbaa !5
  %34 = icmp sgt i32 %33, 1
  br i1 %34, label %35, label %37, !prof !10

35:                                               ; preds = %32
  %36 = add nsw i32 %33, -1
  store i32 %36, ptr %5, align 4, !tbaa !5
  br label %lean_dec.exit

37:                                               ; preds = %32
  %.not.i21 = icmp eq i32 %33, 0
  br i1 %.not.i21, label %lean_dec.exit, label %38

38:                                               ; preds = %37
  tail call void @lean_dec_ref_cold(ptr noundef nonnull %5) #4
  br label %lean_dec.exit

lean_dec.exit:                                    ; preds = %38, %37, %35, %lean_dec.exit17
  %39 = lshr i64 %30, 1
  %40 = trunc i64 %39 to i8
  %41 = lshr i64 %21, 1
  %42 = trunc i64 %41 to i8
  %43 = lshr i64 %12, 1
  %44 = trunc i64 %43 to i8
  %45 = tail call ptr @l_Lean_Meta_substCore___lambda__21(ptr noundef %0, ptr noundef %1, ptr noundef %2, i8 noundef zeroext %44, i8 noundef zeroext %42, i8 noundef zeroext %40, ptr noundef %6, ptr noundef %7, ptr noundef %8, ptr noundef %9, ptr noundef %10)
  ret ptr %45
}